target datalayout = "e-m:e-p270:32:32-p271:32:32-p272:64:64-i64:64-i128:128-f80:128-n8:16:32:64-S128"
target triple = "x86_64-pc-linux-gnu"

@hf_iap_invaloctet = internal global i32 0, align 4
@.str = private unnamed_addr constant [3 x i8] c"%s\00", align 1
@.str.1 = private unnamed_addr constant [36 x i8] c"\22 attribute must be octet sequence!\00", align 1

; Function Attrs: null_pointer_is_valid sspstrong uwtable
define hidden zeroext i1 @check_iap_octet_result(ptr noundef %0, ptr noundef %1, i32 noundef %2, ptr noundef %3, i8 noundef zeroext %4) #0 {
  %6 = alloca i1, align 1
  %7 = alloca ptr, align 8
  %8 = alloca ptr, align 8
  %9 = alloca i32, align 4
  %10 = alloca ptr, align 8
  %11 = alloca i8, align 1
  %12 = alloca ptr, align 8
  store ptr %0, ptr %7, align 8
  store ptr %1, ptr %8, align 8
  store i32 %2, ptr %9, align 4
  store ptr %3, ptr %10, align 8
  store i8 %4, ptr %11, align 1
  %13 = load i8, ptr %11, align 1
  %14 = zext i8 %13 to i32
  %15 = icmp ne i32 %14, 2
  br i1 %15, label %16, label %29

16:                                               ; preds = %5
  %17 = load ptr, ptr %8, align 8
  %18 = icmp ne ptr %17, null
  br i1 %18, label %19, label %28

19:                                               ; preds = %16
  call void @llvm.lifetime.start.p0(i64 8, ptr %12) #7
  %20 = load ptr, ptr %8, align 8
  %21 = load i32, ptr @hf_iap_invaloctet, align 4
  %22 = load ptr, ptr %7, align 8
  %23 = load i32, ptr %9, align 4
  %24 = call ptr @proto_tree_add_item(ptr noundef %20, i32 noundef %21, ptr noundef %22, i32 noundef %23, i32 noundef 0, i32 noundef 0)
  store ptr %24, ptr %12, align 8
  %25 = load ptr, ptr %12, align 8
  %26 = load ptr, ptr %10, align 8
  call void (ptr, ptr, ...) @proto_item_append_text(ptr noundef %25, ptr noundef @.str, ptr noundef %26)
  %27 = load ptr, ptr %12, align 8
  call void (ptr, ptr, ...) @proto_item_append_text(ptr noundef %27, ptr noundef @.str.1)
  call void @llvm.lifetime.end.p0(i64 8, ptr %12) #7
  br label %28

28:                                               ; preds = %19, %16
  store i1 false, ptr %6, align 1
  br label %30

29:                                               ; preds = %5
  store i1 true, ptr %6, align 1
  br label %30

30:                                               ; preds = %29, %28
  %31 = load i1, ptr %6, align 1
  ret i1 %31
}