; Function Attrs: null_pointer_is_valid sspstrong uwtable
define hidden noundef zeroext i1 @check_iap_octet_result(ptr noundef %0, ptr noundef %1, i32 noundef %2, ptr noundef %3, i8 noundef zeroext %4) local_unnamed_addr #0 {
  %.not = icmp eq i8 %4, 2
  %.not9 = icmp eq ptr %1, null
  %or.cond = or i1 %.not9, %.not
  br i1 %or.cond, label %9, label %6

6:                                                ; preds = %5
  %7 = load i32, ptr @hf_iap_invaloctet, align 4
  %8 = tail call ptr @proto_tree_add_item(ptr noundef nonnull %1, i32 noundef %7, ptr noundef %0, i32 noundef %2, i32 noundef 0, i32 noundef 0)
  tail call void (ptr, ptr, ...) @proto_item_append_text(ptr noundef %8, ptr noundef nonnull @.str, ptr noundef %3)
  tail call void (ptr, ptr, ...) @proto_item_append_text(ptr noundef %8, ptr noundef nonnull @.str.1)
  br label %9

9:                                                ; preds = %5, %6
  ret i1 %.not
}